target datalayout = "e-m:e-p270:32:32-p271:32:32-p272:64:64-i64:64-i128:128-f80:128-n8:16:32:64-S128"
target triple = "x86_64-pc-linux-gnu"

%struct._zend_phpdbg_globals = type { [11 x %struct._zend_array], %struct._zend_array, %struct._zend_array, ptr, ptr, %struct.phpdbg_frame_t, i32, ptr, %struct.phpdbg_lexer_data, ptr, %struct.sigaction, i32, i64, %struct.phpdbg_btree, %struct.phpdbg_btree, %struct._zend_array, %struct._zend_array, %struct._zend_array, %struct._zend_array, ptr, ptr, i8, ptr, ptr, ptr, i64, ptr, %struct._zval_struct, i32, i32, i8, i8, ptr, ptr, ptr, %struct._zend_array, ptr, ptr, ptr, [3 x %struct.anon.8], ptr, %struct.anon.9, i64, [2 x ptr], [3 x ptr], ptr, i8, ptr, ptr, [500 x i8], i32, %struct.phpdbg_signal_safe_mem, ptr, i64, ptr, i64 }
%struct.phpdbg_frame_t = type { i32, ptr, ptr }
%struct.phpdbg_lexer_data = type { i32, ptr, ptr, ptr, ptr, i32 }
%struct.sigaction = type { %union.anon.2, %struct.__sigset_t, i32, ptr }
%union.anon.2 = type { ptr }
%struct.__sigset_t = type { [16 x i64] }
%struct.phpdbg_btree = type { i64, i64, i8, ptr }
%struct._zval_struct = type { %union._zend_value, %union.anon.4, %union.anon.7 }
%union._zend_value = type { i64 }
%union.anon.4 = type { i32 }
%union.anon.7 = type { i32 }
%struct._zend_array = type { %struct._zend_refcounted_h, %union.anon.0, i32, %union.anon.1, i32, i32, i32, i32, i64, ptr }
%struct._zend_refcounted_h = type { i32, %union.anon }
%union.anon = type { i32 }
%union.anon.0 = type { i32 }
%union.anon.1 = type { ptr }
%struct.anon.8 = type { i32 }
%struct.anon.9 = type { i8, i32, i32, ptr, i32 }
%struct.phpdbg_signal_safe_mem = type { ptr, i8, ptr, ptr }
%struct._zend_executor_globals = type { %struct._zval_struct, %struct._zval_struct, [32 x ptr], ptr, ptr, %struct._zend_array, %struct._zend_array, ptr, i32, i32, ptr, ptr, ptr, ptr, ptr, ptr, i64, ptr, ptr, i32, i32, i64, i32, i32, i32, i8, i8, %struct.zend_atomic_bool_s, %struct.zend_atomic_bool_s, ptr, i64, ptr, ptr, %struct._zend_array, %struct._zend_array, i32, i8, %struct._zval_struct, %struct._zval_struct, %struct._zend_stack, %struct._zend_stack, %struct._zend_stack, ptr, i32, i32, i64, ptr, ptr, ptr, %struct._zend_objects_store, ptr, ptr, ptr, [3 x %struct._zend_op], ptr, i8, i8, i64, i32, i32, ptr, [16 x %struct._HashTableIterator], ptr, %union._zend_function, %struct._zend_op, %struct._zend_array, i64, %struct.zend_get_gc_buffer, ptr, ptr, ptr, i64, i8, i32, ptr, ptr, i64, %struct._zend_call_stack, i64, i64, [6 x ptr] }
%struct.zend_atomic_bool_s = type { i8 }
%struct._zend_stack = type { i32, i32, i32, ptr }
%struct._zend_objects_store = type { ptr, i32, i32, i32 }
%struct._HashTableIterator = type { ptr, i32, i32 }
%union._zend_function = type { %struct._zend_op_array }
%struct._zend_op_array = type { i8, [3 x i8], i32, ptr, ptr, ptr, i32, i32, ptr, ptr, ptr, ptr, i32, i32, i32, i32, ptr, ptr, ptr, ptr, ptr, i32, i32, ptr, ptr, ptr, i32, i32, i32, i32, ptr, ptr, [6 x ptr] }
%struct._zend_op = type { ptr, %union._znode_op, %union._znode_op, %union._znode_op, i32, i32, i8, i8, i8, i8 }
%union._znode_op = type { i32 }
%struct.zend_get_gc_buffer = type { ptr, ptr, ptr }
%struct._zend_call_stack = type { ptr, i64 }
%struct._zend_string = type { %struct._zend_refcounted_h, i64, i64, [1 x i8] }
%struct._zend_class_entry = type { i8, ptr, %union.anon.12, i32, i32, i32, i32, ptr, ptr, ptr, %struct._zend_array, %struct._zend_array, %struct._zend_array, ptr, ptr, ptr, ptr, ptr, ptr, ptr, ptr, ptr, ptr, ptr, ptr, ptr, ptr, ptr, ptr, ptr, ptr, ptr, %union.anon.13, ptr, ptr, ptr, ptr, i32, i32, %union.anon.14, ptr, ptr, ptr, ptr, i32, ptr, ptr, %union.anon.15 }
%union.anon.12 = type { ptr }
%union.anon.13 = type { ptr }
%union.anon.14 = type { ptr }
%union.anon.15 = type { %struct.anon.16 }
%struct.anon.16 = type { ptr, i32, i32 }
%struct.__jmp_buf_tag = type { [8 x i64], i32, %struct.__sigset_t }
%struct.anon.18 = type { i8, [3 x i8], i32, ptr, ptr, ptr, i32, i32, ptr, ptr, ptr, ptr, i32 }

@phpdbg_globals = external global %struct._zend_phpdbg_globals, align 8
@.str.22 = private unnamed_addr constant [48 x i8] c"The function requested (%s) is not user defined\00", align 1
@executor_globals = external global %struct._zend_executor_globals, align 8
@.str.23 = private unnamed_addr constant [16 x i8] c"No active class\00", align 1
@.str.24 = private unnamed_addr constant [25 x i8] c"No function table loaded\00", align 1
@.str.25 = private unnamed_addr constant [22 x i8] c"Function %s not found\00", align 1
@.str.26 = private unnamed_addr constant [48 x i8] c"Could not list function %s, invalid data source\00", align 1

; Function Attrs: nounwind uwtable
define hidden void @phpdbg_list_function(ptr noundef %0) #0 {
  %2 = alloca ptr, align 8
  %3 = alloca ptr, align 8
  store ptr %0, ptr %2, align 8
  %4 = load ptr, ptr %2, align 8
  %5 = load i8, ptr %4, align 8
  %6 = zext i8 %5 to i32
  %7 = icmp ne i32 %6, 2
  br i1 %7, label %8, label %16

8:                                                ; preds = %1
  %9 = load i32, ptr getelementptr inbounds (%struct._zend_phpdbg_globals, ptr @phpdbg_globals, i32 0, i32 39, i64 1), align 4
  %10 = load ptr, ptr %2, align 8
  %11 = getelementptr inbounds %struct.anon.18, ptr %10, i32 0, i32 3
  %12 = load ptr, ptr %11, align 8
  %13 = getelementptr inbounds %struct._zend_string, ptr %12, i32 0, i32 3
  %14 = getelementptr inbounds [1 x i8], ptr %13, i64 0, i64 0
  %15 = call i32 (i32, i32, ptr, ...) @phpdbg_print(i32 noundef 1, i32 noundef %9, ptr noundef @.str.22, ptr noundef %14)
  br label %32

16:                                               ; preds = %1
  %17 = load ptr, ptr %2, align 8
  store ptr %17, ptr %3, align 8
  %18 = load ptr, ptr %3, align 8
  %19 = getelementptr inbounds %struct._zend_op_array, ptr %18, i32 0, i32 25
  %20 = load ptr, ptr %19, align 8
  %21 = load ptr, ptr %3, align 8
  %22 = getelementptr inbounds %struct._zend_op_array, ptr %21, i32 0, i32 27
  %23 = load i32, ptr %22, align 4
  %24 = load ptr, ptr %3, align 8
  %25 = getelementptr inbounds %struct._zend_op_array, ptr %24, i32 0, i32 26
  %26 = load i32, ptr %25, align 8
  %27 = sub i32 %23, %26
  %28 = add i32 %27, 1
  %29 = load ptr, ptr %3, align 8
  %30 = getelementptr inbounds %struct._zend_op_array, ptr %29, i32 0, i32 26
  %31 = load i32, ptr %30, align 8
  call void @phpdbg_list_file(ptr noundef %20, i32 noundef %28, i32 noundef %31, i32 noundef 0)
  br label %32

32:                                               ; preds = %16, %8
  ret void
}

; Function Attrs: nounwind uwtable
define hidden void @phpdbg_list_function_byname(ptr noundef %0, i64 noundef %1) #0 {
  %3 = alloca ptr, align 8
  %4 = alloca ptr, align 8
  %5 = alloca ptr, align 8
  %6 = alloca i64, align 8
  %7 = alloca ptr, align 8
  %8 = alloca ptr, align 8
  %9 = alloca i64, align 8
  %10 = alloca ptr, align 8
  %11 = alloca ptr, align 8
  %12 = alloca ptr, align 8
  %13 = alloca i64, align 8
  %14 = alloca ptr, align 8
  %15 = alloca ptr, align 8
  %16 = alloca [1 x %struct.__jmp_buf_tag], align 16
  store ptr %0, ptr %8, align 8
  store i64 %1, ptr %9, align 8
  %17 = load ptr, ptr getelementptr inbounds (%struct._zend_executor_globals, ptr @executor_globals, i32 0, i32 10), align 8
  store ptr %17, ptr %10, align 8
  %18 = load ptr, ptr %8, align 8
  store ptr %18, ptr %12, align 8
  %19 = load i64, ptr %9, align 8
  store i64 %19, ptr %13, align 8
  %20 = load ptr, ptr %12, align 8
  %21 = getelementptr inbounds i8, ptr %20, i64 0
  %22 = load i8, ptr %21, align 1
  %23 = sext i8 %22 to i32
  %24 = icmp eq i32 %23, 46
  br i1 %24, label %25, label %40

25:                                               ; preds = %2
  %26 = call ptr @zend_get_executed_scope()
  store ptr %26, ptr %14, align 8
  %27 = load ptr, ptr %14, align 8
  %28 = icmp ne ptr %27, null
  br i1 %28, label %29, label %36

29:                                               ; preds = %25
  %30 = load ptr, ptr %12, align 8
  %31 = getelementptr inbounds i8, ptr %30, i32 1
  store ptr %31, ptr %12, align 8
  %32 = load i64, ptr %13, align 8
  %33 = add i64 %32, -1
  store i64 %33, ptr %13, align 8
  %34 = load ptr, ptr %14, align 8
  %35 = getelementptr inbounds %struct._zend_class_entry, ptr %34, i32 0, i32 10
  store ptr %35, ptr %10, align 8
  br label %39

36:                                               ; preds = %25
  %37 = load i32, ptr getelementptr inbounds (%struct._zend_phpdbg_globals, ptr @phpdbg_globals, i32 0, i32 39, i64 1), align 4
  %38 = call i32 (i32, i32, ptr, ...) @phpdbg_print(i32 noundef 1, i32 noundef %37, ptr noundef @.str.23)
  br label %92

39:                                               ; preds = %29
  br label %49

40:                                               ; preds = %2
  %41 = load ptr, ptr getelementptr inbounds (%struct._zend_executor_globals, ptr @executor_globals, i32 0, i32 10), align 8
  %42 = icmp ne ptr %41, null
  br i1 %42, label %46, label %43

43:                                               ; preds = %40
  %44 = load i32, ptr getelementptr inbounds (%struct._zend_phpdbg_globals, ptr @phpdbg_globals, i32 0, i32 39, i64 1), align 4
  %45 = call i32 (i32, i32, ptr, ...) @phpdbg_print(i32 noundef 1, i32 noundef %44, ptr noundef @.str.24)
  br label %92

46:                                               ; preds = %40
  %47 = load ptr, ptr getelementptr inbounds (%struct._zend_executor_globals, ptr @executor_globals, i32 0, i32 10), align 8
  store ptr %47, ptr %10, align 8
  br label %48

48:                                               ; preds = %46
  br label %49

49:                                               ; preds = %48, %39
  %50 = load ptr, ptr %12, align 8
  %51 = load i64, ptr %13, align 8
  %52 = call ptr @zend_str_tolower_dup(ptr noundef %50, i64 noundef %51)
  store ptr %52, ptr %12, align 8
  %53 = load ptr, ptr getelementptr inbounds (%struct._zend_phpdbg_globals, ptr @phpdbg_globals, i32 0, i32 52), align 8
  store ptr %53, ptr %15, align 8
  store ptr %16, ptr getelementptr inbounds (%struct._zend_phpdbg_globals, ptr @phpdbg_globals, i32 0, i32 52), align 8
  %54 = getelementptr inbounds [1 x %struct.__jmp_buf_tag], ptr %16, i64 0, i64 0
  %55 = call i32 @__sigsetjmp(ptr noundef %54, i32 noundef 0) #13
  %56 = icmp eq i32 %55, 0
  br i1 %56, label %57, label %84

57:                                               ; preds = %49
  %58 = load ptr, ptr %10, align 8
  %59 = load ptr, ptr %12, align 8
  %60 = load i64, ptr %13, align 8
  store ptr %58, ptr %4, align 8
  store ptr %59, ptr %5, align 8
  store i64 %60, ptr %6, align 8
  %61 = load ptr, ptr %4, align 8
  %62 = load ptr, ptr %5, align 8
  %63 = load i64, ptr %6, align 8
  %64 = call ptr @zend_hash_str_find(ptr noundef %61, ptr noundef %62, i64 noundef %63) #12
  store ptr %64, ptr %7, align 8
  %65 = load ptr, ptr %7, align 8
  %66 = icmp ne ptr %65, null
  br i1 %66, label %67, label %73

67:                                               ; preds = %57
  %68 = load ptr, ptr %7, align 8
  %69 = load ptr, ptr %68, align 8
  %70 = icmp ne ptr %69, null
  call void @llvm.assume(i1 %70)
  %71 = load ptr, ptr %7, align 8
  %72 = load ptr, ptr %71, align 8
  store ptr %72, ptr %3, align 8
  br label %74

73:                                               ; preds = %57
  store ptr null, ptr %3, align 8
  br label %74

74:                                               ; preds = %73, %67
  %75 = load ptr, ptr %3, align 8
  store ptr %75, ptr %11, align 8
  %76 = icmp ne ptr %75, null
  br i1 %76, label %77, label %79

77:                                               ; preds = %74
  %78 = load ptr, ptr %11, align 8
  call void @phpdbg_list_function(ptr noundef %78)
  br label %83

79:                                               ; preds = %74
  %80 = load i32, ptr getelementptr inbounds (%struct._zend_phpdbg_globals, ptr @phpdbg_globals, i32 0, i32 39, i64 1), align 4
  %81 = load ptr, ptr %12, align 8
  %82 = call i32 (i32, i32, ptr, ...) @phpdbg_print(i32 noundef 1, i32 noundef %80, ptr noundef @.str.25, ptr noundef %81)
  br label %83

83:                                               ; preds = %79, %77
  br label %89

84:                                               ; preds = %49
  %85 = load ptr, ptr %15, align 8
  store ptr %85, ptr getelementptr inbounds (%struct._zend_phpdbg_globals, ptr @phpdbg_globals, i32 0, i32 52), align 8
  %86 = load i32, ptr getelementptr inbounds (%struct._zend_phpdbg_globals, ptr @phpdbg_globals, i32 0, i32 39, i64 1), align 4
  %87 = load ptr, ptr %12, align 8
  %88 = call i32 (i32, i32, ptr, ...) @phpdbg_print(i32 noundef 1, i32 noundef %86, ptr noundef @.str.26, ptr noundef %87)
  br label %89

89:                                               ; preds = %84, %83
  %90 = load ptr, ptr %15, align 8
  store ptr %90, ptr getelementptr inbounds (%struct._zend_phpdbg_globals, ptr @phpdbg_globals, i32 0, i32 52), align 8
  %91 = load ptr, ptr %12, align 8
  call void @_efree(ptr noundef %91)
  br label %92

92:                                               ; preds = %89, %43, %36
  ret void
}