; Function Attrs: nounwind uwtable
define hidden void @phpdbg_list_function_byname(ptr noundef %0, i64 noundef %1) local_unnamed_addr #0 {
  %3 = alloca [1 x %struct.__jmp_buf_tag], align 16
  %4 = load i8, ptr %0, align 1
  %5 = icmp eq i8 %4, 46
  br i1 %5, label %6, label %15

6:                                                ; preds = %2
  %7 = call ptr @zend_get_executed_scope() #11
  %.not30 = icmp eq ptr %7, null
  br i1 %.not30, label %12, label %8

8:                                                ; preds = %6
  %9 = getelementptr inbounds i8, ptr %0, i64 1
  %10 = add i64 %1, -1
  %11 = getelementptr inbounds i8, ptr %7, i64 64
  br label %20

12:                                               ; preds = %6
  %13 = load i32, ptr getelementptr inbounds (%struct._zend_phpdbg_globals, ptr @phpdbg_globals, i64 0, i32 39, i64 1), align 4
  %14 = call i32 (i32, i32, ptr, ...) @phpdbg_print(i32 noundef 1, i32 noundef %13, ptr noundef nonnull @.str.23) #11
  br label %51

15:                                               ; preds = %2
  %16 = load ptr, ptr getelementptr inbounds (%struct._zend_executor_globals, ptr @executor_globals, i64 0, i32 10), align 8
  %.not = icmp eq ptr %16, null
  br i1 %.not, label %17, label %20

17:                                               ; preds = %15
  %18 = load i32, ptr getelementptr inbounds (%struct._zend_phpdbg_globals, ptr @phpdbg_globals, i64 0, i32 39, i64 1), align 4
  %19 = call i32 (i32, i32, ptr, ...) @phpdbg_print(i32 noundef 1, i32 noundef %18, ptr noundef nonnull @.str.24) #11
  br label %51

20:                                               ; preds = %15, %8
  %.026 = phi ptr [ %9, %8 ], [ %0, %15 ]
  %.025 = phi i64 [ %10, %8 ], [ %1, %15 ]
  %.024 = phi ptr [ %11, %8 ], [ %16, %15 ]
  %21 = call ptr @zend_str_tolower_dup(ptr noundef nonnull %.026, i64 noundef %.025) #11
  %22 = load ptr, ptr getelementptr inbounds (%struct._zend_phpdbg_globals, ptr @phpdbg_globals, i64 0, i32 52), align 8
  store ptr %3, ptr getelementptr inbounds (%struct._zend_phpdbg_globals, ptr @phpdbg_globals, i64 0, i32 52), align 8
  %23 = call i32 @__sigsetjmp(ptr noundef nonnull %3, i32 noundef 0) #14
  %24 = icmp eq i32 %23, 0
  br i1 %24, label %25, label %48

25:                                               ; preds = %20
  %26 = call ptr @zend_hash_str_find(ptr noundef nonnull %.024, ptr noundef %21, i64 noundef %.025) #11
  %.not31 = icmp eq ptr %26, null
  br i1 %.not31, label %45, label %27

27:                                               ; preds = %25
  %28 = load ptr, ptr %26, align 8, !nonnull !4, !noundef !4
  %29 = load i8, ptr %28, align 8
  %.not.i = icmp eq i8 %29, 2
  br i1 %.not.i, label %36, label %30

30:                                               ; preds = %27
  %31 = load i32, ptr getelementptr inbounds (%struct._zend_phpdbg_globals, ptr @phpdbg_globals, i64 0, i32 39, i64 1), align 4
  %32 = getelementptr inbounds i8, ptr %28, i64 8
  %33 = load ptr, ptr %32, align 8
  %34 = getelementptr inbounds i8, ptr %33, i64 24
  %35 = call i32 (i32, i32, ptr, ...) @phpdbg_print(i32 noundef 1, i32 noundef %31, ptr noundef nonnull @.str.22, ptr noundef nonnull %34) #11
  br label %phpdbg_list_function.exit

36:                                               ; preds = %27
  %37 = getelementptr inbounds i8, ptr %28, i64 152
  %38 = load ptr, ptr %37, align 8
  %39 = getelementptr inbounds i8, ptr %28, i64 164
  %40 = load i32, ptr %39, align 4
  %41 = getelementptr inbounds i8, ptr %28, i64 160
  %42 = load i32, ptr %41, align 8
  %43 = add i32 %40, 1
  %44 = sub i32 %43, %42
  call void @phpdbg_list_file(ptr noundef %38, i32 noundef %44, i32 noundef %42, i32 noundef 0)
  br label %phpdbg_list_function.exit

45:                                               ; preds = %25
  %46 = load i32, ptr getelementptr inbounds (%struct._zend_phpdbg_globals, ptr @phpdbg_globals, i64 0, i32 39, i64 1), align 4
  %47 = call i32 (i32, i32, ptr, ...) @phpdbg_print(i32 noundef 1, i32 noundef %46, ptr noundef nonnull @.str.25, ptr noundef %21) #11
  br label %phpdbg_list_function.exit

48:                                               ; preds = %20
  store ptr %22, ptr getelementptr inbounds (%struct._zend_phpdbg_globals, ptr @phpdbg_globals, i64 0, i32 52), align 8
  %49 = load i32, ptr getelementptr inbounds (%struct._zend_phpdbg_globals, ptr @phpdbg_globals, i64 0, i32 39, i64 1), align 4
  %50 = call i32 (i32, i32, ptr, ...) @phpdbg_print(i32 noundef 1, i32 noundef %49, ptr noundef nonnull @.str.26, ptr noundef %21) #11
  br label %phpdbg_list_function.exit

phpdbg_list_function.exit:                        ; preds = %36, %30, %45, %48
  store ptr %22, ptr getelementptr inbounds (%struct._zend_phpdbg_globals, ptr @phpdbg_globals, i64 0, i32 52), align 8
  call void @_efree(ptr noundef %21) #11
  br label %51

51:                                               ; preds = %phpdbg_list_function.exit, %17, %12
  ret void
}